target datalayout = "e-m:e-p270:32:32-p271:32:32-p272:64:64-i64:64-i128:128-f80:128-n8:16:32:64-S128"
target triple = "x86_64-pc-linux-gnu"

%"class.std::__1::unique_ptr" = type { %"class.std::__1::__compressed_pair" }
%"class.std::__1::__compressed_pair" = type { %"struct.std::__1::__compressed_pair_elem" }
%"struct.std::__1::__compressed_pair_elem" = type { ptr }
%"class.mitsuba::Bitmap" = type { %"class.mitsuba::Object.base", %"class.std::__1::unique_ptr", i32, i32, %"struct.mitsuba::Vector", %"class.mitsuba::ref", i8, i8, i8, %"class.mitsuba::Properties" }
%"class.mitsuba::Object.base" = type <{ ptr, %"struct.std::__1::atomic" }>
%"struct.std::__1::atomic" = type { %"struct.std::__1::__atomic_base" }
%"struct.std::__1::__atomic_base" = type { %"struct.std::__1::__atomic_base.0" }
%"struct.std::__1::__atomic_base.0" = type { %"struct.std::__1::__cxx_atomic_impl" }
%"struct.std::__1::__cxx_atomic_impl" = type { %"struct.std::__1::__cxx_atomic_base_impl" }
%"struct.std::__1::__cxx_atomic_base_impl" = type { i32 }
%"struct.mitsuba::Vector" = type { %"struct.drjit::StaticArrayImpl" }
%"struct.drjit::StaticArrayImpl" = type { [2 x i32] }
%"class.mitsuba::ref" = type { ptr }
%"class.mitsuba::Properties" = type { %"class.std::__1::unique_ptr.2" }
%"class.std::__1::unique_ptr.2" = type { %"class.std::__1::__compressed_pair.3" }
%"class.std::__1::__compressed_pair.3" = type { %"struct.std::__1::__compressed_pair_elem.4" }
%"struct.std::__1::__compressed_pair_elem.4" = type { ptr }
%"class.std::__1::basic_string" = type { %"class.std::__1::__compressed_pair.25" }
%"class.std::__1::__compressed_pair.25" = type { %"struct.std::__1::__compressed_pair_elem.26" }
%"struct.std::__1::__compressed_pair_elem.26" = type { %"struct.std::__1::basic_string<char>::__rep" }
%"struct.std::__1::basic_string<char>::__rep" = type { %union.anon }
%union.anon = type { %"struct.std::__1::basic_string<char>::__long" }
%"struct.std::__1::basic_string<char>::__long" = type { %struct.anon.27, i64, ptr }
%struct.anon.27 = type { i64 }
%"struct.mitsuba::ScopedPhase" = type { i8 }
%struct.jpeg_error_mgr = type { ptr, ptr, ptr, ptr, ptr, i32, %union.anon.189, i32, i64, ptr, i32, ptr, i32, i32 }
%union.anon.189 = type { [8 x i32], [48 x i8] }
%struct.jpeg_compress_struct = type { ptr, ptr, ptr, ptr, i32, i32, ptr, i32, i32, i32, i32, double, i32, i32, i32, i32, i32, i32, i32, ptr, [4 x ptr], [4 x i32], [4 x ptr], [4 x ptr], [16 x i8], [16 x i8], [16 x i8], i32, ptr, i32, i32, i32, i32, i32, i32, i32, i32, i32, i32, i8, i8, i8, i16, i16, i32, i32, i32, i32, i32, i32, i32, i32, i32, [4 x ptr], i32, i32, i32, [10 x i32], i32, i32, i32, i32, ptr, ptr, ptr, ptr, ptr, ptr, ptr, ptr, ptr, ptr, i32 }
%"struct.mitsuba::jbuf_out_t" = type { %struct.jpeg_destination_mgr, ptr, ptr }
%struct.jpeg_destination_mgr = type { ptr, i64, ptr, ptr, ptr }
%struct.jpeg_component_info = type { i32, i32, i32, i32, i32, i32, i32, i32, i32, i32, i32, i32, i32, i32, i32, i32, i32, i32, i32, i32, ptr, ptr }

@_ZN7mitsuba6Bitmap7m_classE = global ptr null, align 8
@.str.10 = private unnamed_addr constant [115 x i8] c"generated/home/dtcxzyw/WorkSpace/Projects/compilers/llvm-opt-benchmark/bench/mitsuba3/mitsuba3/src/core/bitmap.cpp\00", align 1
@.str.81 = private unnamed_addr constant [40 x i8] c"write_jpeg(): Unsupported pixel format!\00", align 1
@.str.82 = private unnamed_addr constant [59 x i8] c"write_jpeg(): Unsupported component format %s, expected %s\00", align 1

; Function Attrs: mustprogress nounwind uwtable
define linkonce_odr hidden noundef nonnull align 8 dereferenceable(8) ptr @_ZNKSt3__122__compressed_pair_elemIPhLi0ELb0EE5__getB8ne190000Ev(ptr noundef nonnull align 8 dereferenceable(8) %0) #1 comdat align 2 {
  %2 = alloca ptr, align 8
  store ptr %0, ptr %2, align 8
  %3 = load ptr, ptr %2, align 8
  %4 = getelementptr inbounds %"struct.std::__1::__compressed_pair_elem", ptr %3, i32 0, i32 0
  ret ptr %4
}

; Function Attrs: mustprogress nounwind uwtable
define linkonce_odr hidden noundef nonnull align 8 dereferenceable(8) ptr @_ZNKSt3__117__compressed_pairIPhNS_14default_deleteIA_hEEE5firstB8ne190000Ev(ptr noundef nonnull align 8 dereferenceable(8) %0) #1 comdat align 2 {
  %2 = alloca ptr, align 8
  store ptr %0, ptr %2, align 8
  %3 = load ptr, ptr %2, align 8
  %4 = call noundef nonnull align 8 dereferenceable(8) ptr @_ZNKSt3__122__compressed_pair_elemIPhLi0ELb0EE5__getB8ne190000Ev(ptr noundef nonnull align 8 dereferenceable(8) %3) #29
  ret ptr %4
}

; Function Attrs: mustprogress nounwind uwtable
define linkonce_odr hidden void @_ZN7mitsuba11ScopedPhaseD2Ev(ptr noundef nonnull align 1 dereferenceable(1) %0) unnamed_addr #1 comdat align 2 {
  %2 = alloca ptr, align 8
  store ptr %0, ptr %2, align 8
  ret void
}

; Function Attrs: mustprogress nounwind uwtable
define linkonce_odr hidden noundef ptr @_ZNKSt3__110unique_ptrIA_hNS_14default_deleteIS1_EEE3getB8ne190000Ev(ptr noundef nonnull align 8 dereferenceable(8) %0) #1 comdat align 2 {
  %2 = alloca ptr, align 8
  store ptr %0, ptr %2, align 8
  %3 = load ptr, ptr %2, align 8
  %4 = getelementptr inbounds %"class.std::__1::unique_ptr", ptr %3, i32 0, i32 0
  %5 = call noundef nonnull align 8 dereferenceable(8) ptr @_ZNKSt3__117__compressed_pairIPhNS_14default_deleteIA_hEEE5firstB8ne190000Ev(ptr noundef nonnull align 8 dereferenceable(8) %4) #29
  %6 = load ptr, ptr %5, align 8
  ret ptr %6
}

; Function Attrs: mustprogress nounwind uwtable
define linkonce_odr hidden void @_ZN7mitsuba11ScopedPhaseC2ENS_13ProfilerPhaseE(ptr noundef nonnull align 1 dereferenceable(1) %0, i32 noundef %1) unnamed_addr #1 comdat align 2 {
  %3 = alloca ptr, align 8
  %4 = alloca i32, align 4
  store ptr %0, ptr %3, align 8
  store i32 %1, ptr %4, align 4
  ret void
}

; Function Attrs: mustprogress uwtable
define void @_ZNK7mitsuba6Bitmap10write_jpegEPNS_6StreamEi(ptr noundef nonnull align 8 dereferenceable(64) %0, ptr noundef %1, i32 noundef %2) #0 align 2 personality ptr @__gxx_personality_v0 {
  %4 = alloca ptr, align 8
  %5 = alloca i64, align 8
  %6 = alloca ptr, align 8
  %7 = alloca i64, align 8
  %8 = alloca ptr, align 8
  %9 = alloca i64, align 8
  %10 = alloca ptr, align 8
  %11 = alloca i64, align 8
  %12 = alloca ptr, align 8
  %13 = alloca ptr, align 8
  %14 = alloca ptr, align 8
  %15 = alloca ptr, align 8
  %16 = alloca ptr, align 8
  %17 = alloca ptr, align 8
  %18 = alloca ptr, align 8
  %19 = alloca ptr, align 8
  %20 = alloca ptr, align 8
  %21 = alloca ptr, align 8
  %22 = alloca i32, align 4
  %23 = alloca %"struct.mitsuba::ScopedPhase", align 1
  %24 = alloca %struct.jpeg_compress_struct, align 8
  %25 = alloca %struct.jpeg_error_mgr, align 8
  %26 = alloca %"struct.mitsuba::jbuf_out_t", align 8
  %27 = alloca i32, align 4
  %28 = alloca %"class.std::__1::basic_string", align 8
  %29 = alloca ptr, align 8
  %30 = alloca i32, align 4
  %31 = alloca %"class.std::__1::basic_string", align 8
  %32 = alloca i32, align 4
  %33 = alloca i64, align 8
  %34 = alloca ptr, align 8
  store ptr %0, ptr %20, align 8
  store ptr %1, ptr %21, align 8
  store i32 %2, ptr %22, align 4
  %35 = load ptr, ptr %20, align 8
  call void @_ZN7mitsuba11ScopedPhaseC2ENS_13ProfilerPhaseE(ptr noundef nonnull align 1 dereferenceable(1) %23, i32 noundef 3)
  store i32 0, ptr %27, align 4
  %36 = getelementptr inbounds %"class.mitsuba::Bitmap", ptr %35, i32 0, i32 2
  %37 = load i32, ptr %36, align 8
  %38 = icmp eq i32 %37, 0
  br i1 %38, label %39, label %40

39:                                               ; preds = %3
  store i32 1, ptr %27, align 4
  br label %65

40:                                               ; preds = %3
  %41 = getelementptr inbounds %"class.mitsuba::Bitmap", ptr %35, i32 0, i32 2
  %42 = load i32, ptr %41, align 8
  %43 = icmp eq i32 %42, 2
  br i1 %43, label %48, label %44

44:                                               ; preds = %40
  %45 = getelementptr inbounds %"class.mitsuba::Bitmap", ptr %35, i32 0, i32 2
  %46 = load i32, ptr %45, align 8
  %47 = icmp eq i32 %46, 6
  br i1 %47, label %48, label %49

48:                                               ; preds = %44, %40
  store i32 3, ptr %27, align 4
  br label %64

49:                                               ; preds = %44
  br label %50

50:                                               ; preds = %49
  %51 = load ptr, ptr @_ZN7mitsuba6Bitmap7m_classE, align 8
  invoke void @_ZN10tinyformat6formatIJEEENSt3__112basic_stringIcNS1_11char_traitsIcEENS1_9allocatorIcEEEEPKcDpRKT_(ptr dead_on_unwind writable sret(%"class.std::__1::basic_string") align 8 %28, ptr noundef @.str.81)
          to label %52 unwind label %54

52:                                               ; preds = %50
  invoke void @_ZN7mitsuba6detail5ThrowENS_8LogLevelEPKNS_5ClassEPKciRKNSt3__112basic_stringIcNS7_11char_traitsIcEENS7_9allocatorIcEEEE(i32 noundef 400, ptr noundef %51, ptr noundef @.str.10, i32 noundef 1601, ptr noundef nonnull align 8 dereferenceable(24) %28) #32
          to label %53 unwind label %58

53:                                               ; preds = %52
  unreachable

54:                                               ; preds = %173, %172, %158, %134, %120, %111, %83, %81, %70, %50
  %55 = landingpad { ptr, i32 }
          cleanup
  %56 = extractvalue { ptr, i32 } %55, 0
  store ptr %56, ptr %29, align 8
  %57 = extractvalue { ptr, i32 } %55, 1
  store i32 %57, ptr %30, align 4
  br label %175

58:                                               ; preds = %52
  %59 = landingpad { ptr, i32 }
          cleanup
  %60 = extractvalue { ptr, i32 } %59, 0
  store ptr %60, ptr %29, align 8
  %61 = extractvalue { ptr, i32 } %59, 1
  store i32 %61, ptr %30, align 4
  call void @_ZNSt3__112basic_stringIcNS_11char_traitsIcEENS_9allocatorIcEEED1Ev(ptr noundef nonnull align 8 dereferenceable(24) %28) #29
  br label %175

62:                                               ; No predecessors!
  br label %63

63:                                               ; preds = %62
  br label %64

64:                                               ; preds = %63, %48
  br label %65

65:                                               ; preds = %64, %39
  %66 = getelementptr inbounds %"class.mitsuba::Bitmap", ptr %35, i32 0, i32 3
  %67 = load i32, ptr %66, align 4
  %68 = icmp ne i32 %67, 1
  br i1 %68, label %69, label %81

69:                                               ; preds = %65
  br label %70

70:                                               ; preds = %69
  %71 = load ptr, ptr @_ZN7mitsuba6Bitmap7m_classE, align 8
  %72 = getelementptr inbounds %"class.mitsuba::Bitmap", ptr %35, i32 0, i32 3
  store i32 1, ptr %32, align 4
  invoke void @_ZN10tinyformat6formatIJN7mitsuba6Struct4TypeES3_EEENSt3__112basic_stringIcNS4_11char_traitsIcEENS4_9allocatorIcEEEEPKcDpRKT_(ptr dead_on_unwind writable sret(%"class.std::__1::basic_string") align 8 %31, ptr noundef @.str.82, ptr noundef nonnull align 4 dereferenceable(4) %72, ptr noundef nonnull align 4 dereferenceable(4) %32)
          to label %73 unwind label %54

73:                                               ; preds = %70
  invoke void @_ZN7mitsuba6detail5ThrowENS_8LogLevelEPKNS_5ClassEPKciRKNSt3__112basic_stringIcNS7_11char_traitsIcEENS7_9allocatorIcEEEE(i32 noundef 400, ptr noundef %71, ptr noundef @.str.10, i32 noundef 1605, ptr noundef nonnull align 8 dereferenceable(24) %31) #32
          to label %74 unwind label %75

74:                                               ; preds = %73
  unreachable

75:                                               ; preds = %73
  %76 = landingpad { ptr, i32 }
          cleanup
  %77 = extractvalue { ptr, i32 } %76, 0
  store ptr %77, ptr %29, align 8
  %78 = extractvalue { ptr, i32 } %76, 1
  store i32 %78, ptr %30, align 4
  call void @_ZNSt3__112basic_stringIcNS_11char_traitsIcEENS_9allocatorIcEEED1Ev(ptr noundef nonnull align 8 dereferenceable(24) %31) #29
  br label %175

79:                                               ; No predecessors!
  br label %80

80:                                               ; preds = %79
  br label %81

81:                                               ; preds = %80, %65
  call void @llvm.memset.p0.i64(ptr align 8 %26, i8 0, i64 56, i1 false)
  %82 = invoke ptr @jpeg_std_error(ptr noundef %25)
          to label %83 unwind label %54

83:                                               ; preds = %81
  %84 = getelementptr inbounds %struct.jpeg_compress_struct, ptr %24, i32 0, i32 0
  store ptr %82, ptr %84, align 8
  %85 = getelementptr inbounds %struct.jpeg_error_mgr, ptr %25, i32 0, i32 0
  store ptr @_ZN7mitsubaL15jpeg_error_exitEP18jpeg_common_struct, ptr %85, align 8
  invoke void @jpeg_CreateCompress(ptr noundef %24, i32 noundef 70, i64 noundef 568)
          to label %86 unwind label %54

86:                                               ; preds = %83
  %87 = getelementptr inbounds %struct.jpeg_compress_struct, ptr %24, i32 0, i32 6
  store ptr %26, ptr %87, align 8
  %88 = getelementptr inbounds %"struct.mitsuba::jbuf_out_t", ptr %26, i32 0, i32 0
  %89 = getelementptr inbounds %struct.jpeg_destination_mgr, ptr %88, i32 0, i32 2
  store ptr @_ZN7mitsubaL21jpeg_init_destinationEP20jpeg_compress_struct, ptr %89, align 8
  %90 = getelementptr inbounds %"struct.mitsuba::jbuf_out_t", ptr %26, i32 0, i32 0
  %91 = getelementptr inbounds %struct.jpeg_destination_mgr, ptr %90, i32 0, i32 3
  store ptr @_ZN7mitsubaL24jpeg_empty_output_bufferEP20jpeg_compress_struct, ptr %91, align 8
  %92 = getelementptr inbounds %"struct.mitsuba::jbuf_out_t", ptr %26, i32 0, i32 0
  %93 = getelementptr inbounds %struct.jpeg_destination_mgr, ptr %92, i32 0, i32 4
  store ptr @_ZN7mitsubaL21jpeg_term_destinationEP20jpeg_compress_struct, ptr %93, align 8
  %94 = load ptr, ptr %21, align 8
  %95 = getelementptr inbounds %"struct.mitsuba::jbuf_out_t", ptr %26, i32 0, i32 2
  store ptr %94, ptr %95, align 8
  %96 = getelementptr inbounds %"class.mitsuba::Bitmap", ptr %35, i32 0, i32 4
  store ptr %96, ptr %18, align 8
  %97 = load ptr, ptr %18, align 8
  store ptr %97, ptr %13, align 8
  %98 = load ptr, ptr %13, align 8
  store ptr %98, ptr %6, align 8
  store i64 0, ptr %7, align 8
  %99 = load ptr, ptr %6, align 8
  %100 = load i64, ptr %7, align 8
  %101 = getelementptr inbounds [2 x i32], ptr %99, i64 0, i64 %100
  br label %102

102:                                              ; preds = %86
  %103 = load i32, ptr %101, align 4
  %104 = getelementptr inbounds %struct.jpeg_compress_struct, ptr %24, i32 0, i32 7
  store i32 %103, ptr %104, align 8
  %105 = getelementptr inbounds %"class.mitsuba::Bitmap", ptr %35, i32 0, i32 4
  store ptr %105, ptr %16, align 8
  %106 = load ptr, ptr %16, align 8
  store ptr %106, ptr %15, align 8
  %107 = load ptr, ptr %15, align 8
  store ptr %107, ptr %10, align 8
  store i64 1, ptr %11, align 8
  %108 = load ptr, ptr %10, align 8
  %109 = load i64, ptr %11, align 8
  %110 = getelementptr inbounds [2 x i32], ptr %108, i64 0, i64 %109
  br label %111

111:                                              ; preds = %102
  %112 = load i32, ptr %110, align 4
  %113 = getelementptr inbounds %struct.jpeg_compress_struct, ptr %24, i32 0, i32 8
  store i32 %112, ptr %113, align 4
  %114 = load i32, ptr %27, align 4
  %115 = getelementptr inbounds %struct.jpeg_compress_struct, ptr %24, i32 0, i32 9
  store i32 %114, ptr %115, align 8
  %116 = load i32, ptr %27, align 4
  %117 = icmp eq i32 %116, 1
  %118 = select i1 %117, i32 1, i32 2
  %119 = getelementptr inbounds %struct.jpeg_compress_struct, ptr %24, i32 0, i32 10
  store i32 %118, ptr %119, align 4
  invoke void @jpeg_set_defaults(ptr noundef %24)
          to label %120 unwind label %54

120:                                              ; preds = %111
  %121 = load i32, ptr %22, align 4
  invoke void @jpeg_set_quality(ptr noundef %24, i32 noundef %121, i32 noundef 1)
          to label %122 unwind label %54

122:                                              ; preds = %120
  %123 = load i32, ptr %22, align 4
  %124 = icmp eq i32 %123, 100
  br i1 %124, label %125, label %134

125:                                              ; preds = %122
  %126 = getelementptr inbounds %struct.jpeg_compress_struct, ptr %24, i32 0, i32 19
  %127 = load ptr, ptr %126, align 8
  %128 = getelementptr inbounds %struct.jpeg_component_info, ptr %127, i64 0
  %129 = getelementptr inbounds %struct.jpeg_component_info, ptr %128, i32 0, i32 3
  store i32 1, ptr %129, align 4
  %130 = getelementptr inbounds %struct.jpeg_compress_struct, ptr %24, i32 0, i32 19
  %131 = load ptr, ptr %130, align 8
  %132 = getelementptr inbounds %struct.jpeg_component_info, ptr %131, i64 0
  %133 = getelementptr inbounds %struct.jpeg_component_info, ptr %132, i32 0, i32 2
  store i32 1, ptr %133, align 8
  br label %134

134:                                              ; preds = %125, %122
  invoke void @jpeg_start_compress(ptr noundef %24, i32 noundef 1)
          to label %135 unwind label %54

135:                                              ; preds = %134
  store i64 0, ptr %33, align 8
  br label %136

136:                                              ; preds = %169, %135
  %137 = load i64, ptr %33, align 8
  %138 = getelementptr inbounds %"class.mitsuba::Bitmap", ptr %35, i32 0, i32 4
  store ptr %138, ptr %17, align 8
  %139 = load ptr, ptr %17, align 8
  store ptr %139, ptr %14, align 8
  %140 = load ptr, ptr %14, align 8
  store ptr %140, ptr %8, align 8
  store i64 1, ptr %9, align 8
  %141 = load ptr, ptr %8, align 8
  %142 = load i64, ptr %9, align 8
  %143 = getelementptr inbounds [2 x i32], ptr %141, i64 0, i64 %142
  br label %144

144:                                              ; preds = %136
  %145 = load i32, ptr %143, align 4
  %146 = zext i32 %145 to i64
  %147 = icmp ult i64 %137, %146
  br i1 %147, label %148, label %172

148:                                              ; preds = %144
  %149 = getelementptr inbounds %"class.mitsuba::Bitmap", ptr %35, i32 0, i32 1
  %150 = call noundef ptr @_ZNKSt3__110unique_ptrIA_hNS_14default_deleteIS1_EEE3getB8ne190000Ev(ptr noundef nonnull align 8 dereferenceable(8) %149) #29
  %151 = load i64, ptr %33, align 8
  %152 = getelementptr inbounds %"class.mitsuba::Bitmap", ptr %35, i32 0, i32 4
  store ptr %152, ptr %19, align 8
  %153 = load ptr, ptr %19, align 8
  store ptr %153, ptr %12, align 8
  %154 = load ptr, ptr %12, align 8
  store ptr %154, ptr %4, align 8
  store i64 0, ptr %5, align 8
  %155 = load ptr, ptr %4, align 8
  %156 = load i64, ptr %5, align 8
  %157 = getelementptr inbounds [2 x i32], ptr %155, i64 0, i64 %156
  br label %158

158:                                              ; preds = %148
  %159 = load i32, ptr %157, align 4
  %160 = zext i32 %159 to i64
  %161 = mul i64 %151, %160
  %162 = getelementptr inbounds %struct.jpeg_compress_struct, ptr %24, i32 0, i32 9
  %163 = load i32, ptr %162, align 8
  %164 = sext i32 %163 to i64
  %165 = mul i64 %161, %164
  %166 = getelementptr inbounds i8, ptr %150, i64 %165
  store ptr %166, ptr %34, align 8
  %167 = invoke i32 @jpeg_write_scanlines(ptr noundef %24, ptr noundef %34, i32 noundef 1)
          to label %168 unwind label %54

168:                                              ; preds = %158
  br label %169

169:                                              ; preds = %168
  %170 = load i64, ptr %33, align 8
  %171 = add i64 %170, 1
  store i64 %171, ptr %33, align 8
  br label %136, !llvm.loop !62

172:                                              ; preds = %144
  invoke void @jpeg_finish_compress(ptr noundef %24)
          to label %173 unwind label %54

173:                                              ; preds = %172
  invoke void @jpeg_destroy_compress(ptr noundef %24)
          to label %174 unwind label %54

174:                                              ; preds = %173
  call void @_ZN7mitsuba11ScopedPhaseD2Ev(ptr noundef nonnull align 1 dereferenceable(1) %23) #29
  ret void

175:                                              ; preds = %75, %58, %54
  call void @_ZN7mitsuba11ScopedPhaseD2Ev(ptr noundef nonnull align 1 dereferenceable(1) %23) #29
  br label %176

176:                                              ; preds = %175
  %177 = load ptr, ptr %29, align 8
  %178 = load i32, ptr %30, align 4
  %179 = insertvalue { ptr, i32 } poison, ptr %177, 0
  %180 = insertvalue { ptr, i32 } %179, i32 %178, 1
  resume { ptr, i32 } %180
}