; Function Attrs: mustprogress uwtable
define void @_ZNK7mitsuba6Bitmap10write_jpegEPNS_6StreamEi(ptr noundef nonnull align 8 dereferenceable(64) %0, ptr noundef %1, i32 noundef %2) local_unnamed_addr #0 align 2 personality ptr @__gxx_personality_v0 {
  %4 = alloca %struct.jpeg_compress_struct, align 8
  %5 = alloca %struct.jpeg_error_mgr, align 8
  %6 = alloca %"struct.mitsuba::jbuf_out_t", align 8
  %7 = alloca %"class.std::__1::basic_string", align 8
  %8 = alloca %"class.std::__1::basic_string", align 8
  %9 = alloca i32, align 4
  %10 = alloca ptr, align 8
  %11 = getelementptr inbounds i8, ptr %0, i64 24
  %12 = load i32, ptr %11, align 8
  %13 = icmp eq i32 %12, 0
  br i1 %13, label %20, label %14

14:                                               ; preds = %3
  switch i32 %12, label %15 [
    i32 2, label %20
    i32 6, label %20
  ]

15:                                               ; preds = %14
  %16 = load ptr, ptr @_ZN7mitsuba6Bitmap7m_classE, align 8
  call void @_ZN10tinyformat6formatIJEEENSt3__112basic_stringIcNS1_11char_traitsIcEENS1_9allocatorIcEEEEPKcDpRKT_(ptr dead_on_unwind nonnull writable sret(%"class.std::__1::basic_string") align 8 %7, ptr noundef nonnull @.str.81)
  invoke void @_ZN7mitsuba6detail5ThrowENS_8LogLevelEPKNS_5ClassEPKciRKNSt3__112basic_stringIcNS7_11char_traitsIcEENS7_9allocatorIcEEEE(i32 noundef 400, ptr noundef %16, ptr noundef nonnull @.str.10, i32 noundef 1601, ptr noundef nonnull align 8 dereferenceable(24) %7) #37
          to label %17 unwind label %18

17:                                               ; preds = %15
  unreachable

18:                                               ; preds = %15
  %19 = landingpad { ptr, i32 }
          cleanup
  br label %66

20:                                               ; preds = %14, %14, %3
  %.028 = phi i32 [ 1, %3 ], [ 3, %14 ], [ 3, %14 ]
  %21 = getelementptr inbounds i8, ptr %0, i64 28
  %22 = load i32, ptr %21, align 4
  %.not = icmp eq i32 %22, 1
  br i1 %.not, label %28, label %23

23:                                               ; preds = %20
  %24 = load ptr, ptr @_ZN7mitsuba6Bitmap7m_classE, align 8
  store i32 1, ptr %9, align 4
  call void @_ZN10tinyformat6formatIJN7mitsuba6Struct4TypeES3_EEENSt3__112basic_stringIcNS4_11char_traitsIcEENS4_9allocatorIcEEEEPKcDpRKT_(ptr dead_on_unwind nonnull writable sret(%"class.std::__1::basic_string") align 8 %8, ptr noundef nonnull @.str.82, ptr noundef nonnull align 4 dereferenceable(4) %21, ptr noundef nonnull align 4 dereferenceable(4) %9)
  invoke void @_ZN7mitsuba6detail5ThrowENS_8LogLevelEPKNS_5ClassEPKciRKNSt3__112basic_stringIcNS7_11char_traitsIcEENS7_9allocatorIcEEEE(i32 noundef 400, ptr noundef %24, ptr noundef nonnull @.str.10, i32 noundef 1605, ptr noundef nonnull align 8 dereferenceable(24) %8) #37
          to label %25 unwind label %26

25:                                               ; preds = %23
  unreachable

26:                                               ; preds = %23
  %27 = landingpad { ptr, i32 }
          cleanup
  br label %66

28:                                               ; preds = %20
  call void @llvm.memset.p0.i64(ptr noundef nonnull align 8 dereferenceable(56) %6, i8 0, i64 48, i1 false)
  %29 = call ptr @jpeg_std_error(ptr noundef nonnull %5)
  store ptr %29, ptr %4, align 8
  store ptr @_ZN7mitsubaL15jpeg_error_exitEP18jpeg_common_struct, ptr %5, align 8
  call void @jpeg_CreateCompress(ptr noundef nonnull %4, i32 noundef 70, i64 noundef 568)
  %30 = getelementptr inbounds i8, ptr %4, i64 40
  store ptr %6, ptr %30, align 8
  %31 = getelementptr inbounds i8, ptr %6, i64 16
  store ptr @_ZN7mitsubaL21jpeg_init_destinationEP20jpeg_compress_struct, ptr %31, align 8
  %32 = getelementptr inbounds i8, ptr %6, i64 24
  store ptr @_ZN7mitsubaL24jpeg_empty_output_bufferEP20jpeg_compress_struct, ptr %32, align 8
  %33 = getelementptr inbounds i8, ptr %6, i64 32
  store ptr @_ZN7mitsubaL21jpeg_term_destinationEP20jpeg_compress_struct, ptr %33, align 8
  %34 = getelementptr inbounds i8, ptr %6, i64 48
  store ptr %1, ptr %34, align 8
  %35 = getelementptr inbounds i8, ptr %0, i64 32
  %36 = getelementptr inbounds i8, ptr %4, i64 48
  %37 = getelementptr inbounds i8, ptr %0, i64 36
  %38 = load <2 x i32>, ptr %35, align 8
  store <2 x i32> %38, ptr %36, align 8
  %39 = getelementptr inbounds i8, ptr %4, i64 56
  store i32 %.028, ptr %39, align 8
  %40 = select i1 %13, i32 1, i32 2
  %41 = getelementptr inbounds i8, ptr %4, i64 60
  store i32 %40, ptr %41, align 4
  call void @jpeg_set_defaults(ptr noundef nonnull %4)
  call void @jpeg_set_quality(ptr noundef nonnull %4, i32 noundef %2, i32 noundef 1)
  %42 = icmp eq i32 %2, 100
  br i1 %42, label %43, label %49

43:                                               ; preds = %28
  %44 = getelementptr inbounds i8, ptr %4, i64 104
  %45 = load ptr, ptr %44, align 8
  %46 = getelementptr inbounds i8, ptr %45, i64 12
  store i32 1, ptr %46, align 4
  %47 = load ptr, ptr %44, align 8
  %48 = getelementptr inbounds i8, ptr %47, i64 8
  store i32 1, ptr %48, align 8
  br label %49

49:                                               ; preds = %43, %28
  call void @jpeg_start_compress(ptr noundef nonnull %4, i32 noundef 1)
  %50 = load i32, ptr %37, align 4
  %.not32 = icmp eq i32 %50, 0
  br i1 %.not32, label %._crit_edge, label %.lr.ph

.lr.ph:                                           ; preds = %49
  %51 = getelementptr inbounds i8, ptr %0, i64 16
  br label %52

52:                                               ; preds = %.lr.ph, %52
  %.031 = phi i64 [ 0, %.lr.ph ], [ %62, %52 ]
  %53 = load ptr, ptr %51, align 8
  %54 = load i32, ptr %35, align 8
  %55 = zext i32 %54 to i64
  %56 = mul nuw i64 %.031, %55
  %57 = load i32, ptr %39, align 8
  %58 = sext i32 %57 to i64
  %59 = mul i64 %56, %58
  %60 = getelementptr inbounds i8, ptr %53, i64 %59
  store ptr %60, ptr %10, align 8
  %61 = call i32 @jpeg_write_scanlines(ptr noundef nonnull %4, ptr noundef nonnull %10, i32 noundef 1)
  %62 = add nuw nsw i64 %.031, 1
  %63 = load i32, ptr %37, align 4
  %64 = zext i32 %63 to i64
  %65 = icmp ult i64 %62, %64
  br i1 %65, label %52, label %._crit_edge, !llvm.loop !235

._crit_edge:                                      ; preds = %52, %49
  call void @jpeg_finish_compress(ptr noundef nonnull %4)
  call void @jpeg_destroy_compress(ptr noundef nonnull %4)
  ret void

66:                                               ; preds = %26, %18
  %.sink = phi ptr [ %8, %26 ], [ %7, %18 ]
  %.pn = phi { ptr, i32 } [ %27, %26 ], [ %19, %18 ]
  call void @_ZNSt3__112basic_stringIcNS_11char_traitsIcEENS_9allocatorIcEEED1Ev(ptr noundef nonnull align 8 dereferenceable(24) %.sink) #36
  resume { ptr, i32 } %.pn
}